target datalayout = "e-m:e-p270:32:32-p271:32:32-p272:64:64-i64:64-i128:128-f80:128-n8:16:32:64-S128"
target triple = "x86_64-pc-linux-gnu"

%struct.PyModuleDef = type { %struct.PyModuleDef_Base, ptr, ptr, i64, ptr, ptr, ptr, ptr, ptr }
%struct.PyModuleDef_Base = type { %struct._object, ptr, i64, ptr }
%struct._object = type { %union.anon, ptr }
%union.anon = type { i64 }
%struct._typeobject = type { %struct.PyVarObject, ptr, i64, i64, ptr, i64, ptr, ptr, ptr, ptr, ptr, ptr, ptr, ptr, ptr, ptr, ptr, ptr, ptr, i64, ptr, ptr, ptr, ptr, i64, ptr, ptr, ptr, ptr, ptr, ptr, ptr, ptr, ptr, i64, ptr, ptr, ptr, ptr, ptr, ptr, ptr, ptr, ptr, ptr, ptr, i32, ptr, ptr, i8, i16 }
%struct.PyVarObject = type { %struct._object, i64 }

@_contextvarsmodule = internal global %struct.PyModuleDef { %struct.PyModuleDef_Base { %struct._object { %union.anon { i64 552977039360 }, ptr null }, ptr null, i64 0, ptr null }, ptr @.str, ptr @module_doc, i64 0, ptr @_contextvars_methods, ptr @_contextvars_slots, ptr null, ptr null, ptr null }, align 8
@.str = private unnamed_addr constant [13 x i8] c"_contextvars\00", align 1
@module_doc = internal constant [18 x i8] c"Context Variables\00", align 16
@.str.1 = private unnamed_addr constant [13 x i8] c"copy_context\00", align 1
@_contextvars_copy_context__doc__ = internal constant [30 x i8] c"copy_context($module, /)\0A--\0A\0A\00", align 16
@_contextvars_methods = internal global [2 x { ptr, ptr, i32, [4 x i8], ptr }] [{ ptr, ptr, i32, [4 x i8], ptr } { ptr @.str.1, ptr @_contextvars_copy_context, i32 4, [4 x i8] zeroinitializer, ptr @_contextvars_copy_context__doc__ }, { ptr, ptr, i32, [4 x i8], ptr } zeroinitializer], align 16
@_contextvars_slots = internal global [4 x { i32, [4 x i8], ptr }] [{ i32, [4 x i8], ptr } { i32 2, [4 x i8] zeroinitializer, ptr @_contextvars_exec }, { i32, [4 x i8], ptr } { i32 3, [4 x i8] zeroinitializer, ptr inttoptr (i64 2 to ptr) }, { i32, [4 x i8], ptr } { i32 4, [4 x i8] zeroinitializer, ptr inttoptr (i64 1 to ptr) }, { i32, [4 x i8], ptr } zeroinitializer], align 16
@PyContext_Type = external global %struct._typeobject, align 8
@PyContextVar_Type = external global %struct._typeobject, align 8
@PyContextToken_Type = external global %struct._typeobject, align 8

; Function Attrs: nounwind uwtable
define ptr @PyInit__contextvars() #0 {
  %1 = call ptr @PyModuleDef_Init(ptr noundef @_contextvarsmodule)
  ret ptr %1
}

declare ptr @PyModuleDef_Init(ptr noundef) #1

; Function Attrs: nounwind uwtable
define internal ptr @_contextvars_copy_context(ptr noundef %0, ptr noundef %1) #0 {
  %3 = alloca ptr, align 8
  %4 = alloca ptr, align 8
  store ptr %0, ptr %3, align 8, !tbaa !3
  store ptr %1, ptr %4, align 8, !tbaa !3
  %5 = load ptr, ptr %3, align 8, !tbaa !3
  %6 = call ptr @_contextvars_copy_context_impl(ptr noundef %5)
  ret ptr %6
}

; Function Attrs: nounwind uwtable
define internal ptr @_contextvars_copy_context_impl(ptr noundef %0) #0 {
  %2 = alloca ptr, align 8
  store ptr %0, ptr %2, align 8, !tbaa !3
  %3 = call ptr @PyContext_CopyCurrent()
  ret ptr %3
}

declare ptr @PyContext_CopyCurrent() #1

; Function Attrs: nounwind uwtable
define internal i32 @_contextvars_exec(ptr noundef %0) #0 {
  %2 = alloca i32, align 4
  %3 = alloca ptr, align 8
  store ptr %0, ptr %3, align 8, !tbaa !3
  %4 = load ptr, ptr %3, align 8, !tbaa !3
  %5 = call i32 @PyModule_AddType(ptr noundef %4, ptr noundef @PyContext_Type)
  %6 = icmp slt i32 %5, 0
  br i1 %6, label %7, label %8

7:                                                ; preds = %1
  store i32 -1, ptr %2, align 4
  br label %19

8:                                                ; preds = %1
  %9 = load ptr, ptr %3, align 8, !tbaa !3
  %10 = call i32 @PyModule_AddType(ptr noundef %9, ptr noundef @PyContextVar_Type)
  %11 = icmp slt i32 %10, 0
  br i1 %11, label %12, label %13

12:                                               ; preds = %8
  store i32 -1, ptr %2, align 4
  br label %19

13:                                               ; preds = %8
  %14 = load ptr, ptr %3, align 8, !tbaa !3
  %15 = call i32 @PyModule_AddType(ptr noundef %14, ptr noundef @PyContextToken_Type)
  %16 = icmp slt i32 %15, 0
  br i1 %16, label %17, label %18

17:                                               ; preds = %13
  store i32 -1, ptr %2, align 4
  br label %19

18:                                               ; preds = %13
  store i32 0, ptr %2, align 4
  br label %19

19:                                               ; preds = %18, %17, %12, %7
  %20 = load i32, ptr %2, align 4
  ret i32 %20
}

declare i32 @PyModule_AddType(ptr noundef, ptr noundef) #1


!llvm.module.flags = !{!0, !1, !2}

!0 = !{i32 1, !"wchar_size", i32 4}
!1 = !{i32 8, !"PIC Level", i32 2}
!2 = !{i32 7, !"uwtable", i32 2}
!3 = !{!4, !4, i64 0}
!4 = !{!"p1 _ZTS7_object", !5, i64 0}
!5 = !{!"any pointer", !6, i64 0}
!6 = !{!"omnipotent char", !7, i64 0}
!7 = !{!"Simple C/C++ TBAA"}
